; Function Attrs: nofree norecurse nosync nounwind memory(readwrite, inaccessiblemem: none) uwtable
define internal void @idraw_vtext16(ptr noundef readonly captures(none) %0, i32 noundef %1, i32 noundef %2, i32 noundef %3, float noundef %4, float noundef %5, ptr noundef readonly captures(none) %6, ptr noundef readonly captures(none) %7) #6 {
  %9 = getelementptr inbounds nuw i8, ptr %0, i64 64
  %10 = sext i32 %1 to i64
  %11 = sext i32 %2 to i64
  br label %12

12:                                               ; preds = %8, %._crit_edge
  %indvars.iv57 = phi i64 [ 0, %8 ], [ %indvars.iv.next58, %._crit_edge ]
  %13 = getelementptr inbounds nuw [8 x ptr], ptr %0, i64 0, i64 %indvars.iv57
  %14 = load ptr, ptr %13, align 8, !tbaa !71
  %.not = icmp eq ptr %14, null
  br i1 %.not, label %.critedge, label %.preheader

.preheader:                                       ; preds = %12
  %15 = load i8, ptr %6, align 1, !tbaa !62
  %.not4450 = icmp eq i8 %15, 0
  br i1 %.not4450, label %._crit_edge, label %.lr.ph

.lr.ph:                                           ; preds = %.preheader
  %16 = getelementptr inbounds nuw i8, ptr %7, i64 %indvars.iv57
  %17 = getelementptr inbounds nuw [8 x i32], ptr %9, i64 0, i64 %indvars.iv57
  %18 = load i32, ptr %17, align 4, !tbaa !44
  %invariant.gep = getelementptr i16, ptr %14, i64 %10
  %19 = sdiv i32 %18, 2
  %20 = sext i32 %19 to i64
  %21 = sext i32 %18 to i64
  br label %22

22:                                               ; preds = %.lr.ph, %56
  %indvars.iv54 = phi i64 [ 0, %.lr.ph ], [ %indvars.iv.next55, %56 ]
  %23 = getelementptr inbounds nuw i8, ptr %6, i64 %indvars.iv54
  %24 = load i8, ptr %16, align 1, !tbaa !62
  %25 = zext i8 %24 to i32
  %26 = mul nsw i32 %3, %25
  %27 = mul nuw nsw i64 %indvars.iv54, 10
  %28 = add nsw i64 %27, %11
  %29 = mul nsw i64 %28, %21
  %gep = getelementptr i8, ptr %invariant.gep, i64 %29
  br label %30

30:                                               ; preds = %22, %55
  %indvars.iv = phi i64 [ 0, %22 ], [ %indvars.iv.next, %55 ]
  %31 = trunc nuw nsw i64 %indvars.iv to i32
  br label %32

32:                                               ; preds = %30, %52
  %.048 = phi ptr [ %gep, %30 ], [ %53, %52 ]
  %.04147 = phi i32 [ 128, %30 ], [ %54, %52 ]
  %33 = load i8, ptr %23, align 1, !tbaa !62
  %34 = sext i8 %33 to i32
  %35 = shl nsw i32 %34, 3
  %reass.sub = sub i32 %35, %31
  %36 = add i32 %reass.sub, 7
  %37 = sext i32 %36 to i64
  %38 = getelementptr inbounds i8, ptr @avpriv_cga_font, i64 %37
  %39 = load i8, ptr %38, align 1, !tbaa !62
  %40 = zext i8 %39 to i32
  %41 = and i32 %.04147, %40
  %.not46 = icmp eq i32 %41, 0
  br i1 %.not46, label %52, label %42

42:                                               ; preds = %32
  %43 = getelementptr inbounds nuw i16, ptr %.048, i64 %indvars.iv
  %44 = load i16, ptr %43, align 2, !tbaa !72
  %45 = zext i16 %44 to i32
  %46 = uitofp i16 %44 to float
  %47 = sub nsw i32 %26, %45
  %48 = sitofp i32 %47 to float
  %49 = fmul nsz float %4, %48
  %50 = tail call nsz float @llvm.fmuladd.f32(float %46, float %5, float %49)
  %51 = fptoui float %50 to i16
  store i16 %51, ptr %43, align 2, !tbaa !72
  br label %52

52:                                               ; preds = %42, %32
  %53 = getelementptr inbounds i16, ptr %.048, i64 %20
  %54 = lshr i32 %.04147, 1
  %.not45 = icmp samesign ult i32 %.04147, 2
  br i1 %.not45, label %55, label %32, !llvm.loop !265

55:                                               ; preds = %52
  %indvars.iv.next = add nuw nsw i64 %indvars.iv, 1
  %exitcond.not = icmp eq i64 %indvars.iv.next, 8
  br i1 %exitcond.not, label %56, label %30, !llvm.loop !266

56:                                               ; preds = %55
  %indvars.iv.next55 = add nuw nsw i64 %indvars.iv54, 1
  %57 = getelementptr inbounds nuw i8, ptr %6, i64 %indvars.iv.next55
  %58 = load i8, ptr %57, align 1, !tbaa !62
  %.not44 = icmp eq i8 %58, 0
  br i1 %.not44, label %._crit_edge, label %22, !llvm.loop !267

._crit_edge:                                      ; preds = %56, %.preheader
  %indvars.iv.next58 = add nuw nsw i64 %indvars.iv57, 1
  %exitcond60.not = icmp eq i64 %indvars.iv.next58, 4
  br i1 %exitcond60.not, label %.critedge, label %12, !llvm.loop !268

.critedge:                                        ; preds = %._crit_edge, %12
  ret void
}